; Function Attrs: mustprogress nofree norecurse nosync nounwind willreturn memory(argmem: read) uwtable
define internal range(i32 0, 65536) i32 @fold_reassoc_dup_minmax(ptr noundef readonly captures(none) %0) #6 {
  %2 = getelementptr inbounds nuw i8, ptr %0, i64 186
  %3 = load i16, ptr %2, align 2, !tbaa !28
  %4 = getelementptr inbounds nuw i8, ptr %0, i64 194
  %5 = load i16, ptr %4, align 2, !tbaa !28
  %6 = icmp eq i16 %3, %5
  br i1 %6, label %7, label %11

7:                                                ; preds = %1
  %8 = getelementptr inbounds nuw i8, ptr %0, i64 184
  %9 = load i16, ptr %8, align 8, !tbaa !28
  %10 = zext i16 %9 to i32
  br label %11

11:                                               ; preds = %1, %7
  %.0 = phi i32 [ %10, %7 ], [ 0, %1 ]
  ret i32 %.0
}